target datalayout = "e-m:e-p270:32:32-p271:32:32-p272:64:64-i64:64-i128:128-f80:128-n8:16:32:64-S128"
target triple = "x86_64-pc-linux-gnu"

; Function Attrs: inlinehint nounwind uwtable
define internal i32 @Kit_TruthWordNum(i32 noundef %0) #2 {
  %2 = alloca i32, align 4
  store i32 %0, ptr %2, align 4, !tbaa !8
  %3 = load i32, ptr %2, align 4, !tbaa !8
  %4 = icmp sle i32 %3, 5
  br i1 %4, label %5, label %6

5:                                                ; preds = %1
  br label %10

6:                                                ; preds = %1
  %7 = load i32, ptr %2, align 4, !tbaa !8
  %8 = sub nsw i32 %7, 5
  %9 = shl i32 1, %8
  br label %10

10:                                               ; preds = %6, %5
  %11 = phi i32 [ 1, %5 ], [ %9, %6 ]
  ret i32 %11
}

; Function Attrs: nounwind uwtable
define void @Kit_TruthCofactor0New(ptr noundef %0, ptr noundef %1, i32 noundef %2, i32 noundef %3) #0 {
  %5 = alloca ptr, align 8
  %6 = alloca ptr, align 8
  %7 = alloca i32, align 4
  %8 = alloca i32, align 4
  %9 = alloca i32, align 4
  %10 = alloca i32, align 4
  %11 = alloca i32, align 4
  %12 = alloca i32, align 4
  %13 = alloca i32, align 4
  store ptr %0, ptr %5, align 8, !tbaa !3
  store ptr %1, ptr %6, align 8, !tbaa !3
  store i32 %2, ptr %7, align 4, !tbaa !8
  store i32 %3, ptr %8, align 4, !tbaa !8
  call void @llvm.lifetime.start.p0(i64 4, ptr %9) #8
  %14 = load i32, ptr %7, align 4, !tbaa !8
  %15 = call i32 @Kit_TruthWordNum(i32 noundef %14)
  store i32 %15, ptr %9, align 4, !tbaa !8
  call void @llvm.lifetime.start.p0(i64 4, ptr %10) #8
  call void @llvm.lifetime.start.p0(i64 4, ptr %11) #8
  call void @llvm.lifetime.start.p0(i64 4, ptr %12) #8
  %16 = load i32, ptr %8, align 4, !tbaa !8
  switch i32 %16, label %157 [
    i32 0, label %17
    i32 1, label %45
    i32 2, label %73
    i32 3, label %101
    i32 4, label %129
  ]

17:                                               ; preds = %4
  store i32 0, ptr %10, align 4, !tbaa !8
  br label %18

18:                                               ; preds = %41, %17
  %19 = load i32, ptr %10, align 4, !tbaa !8
  %20 = load i32, ptr %9, align 4, !tbaa !8
  %21 = icmp slt i32 %19, %20
  br i1 %21, label %22, label %44

22:                                               ; preds = %18
  %23 = load ptr, ptr %6, align 8, !tbaa !3
  %24 = load i32, ptr %10, align 4, !tbaa !8
  %25 = sext i32 %24 to i64
  %26 = getelementptr inbounds i32, ptr %23, i64 %25
  %27 = load i32, ptr %26, align 4, !tbaa !8
  %28 = and i32 %27, 1431655765
  %29 = load ptr, ptr %6, align 8, !tbaa !3
  %30 = load i32, ptr %10, align 4, !tbaa !8
  %31 = sext i32 %30 to i64
  %32 = getelementptr inbounds i32, ptr %29, i64 %31
  %33 = load i32, ptr %32, align 4, !tbaa !8
  %34 = and i32 %33, 1431655765
  %35 = shl i32 %34, 1
  %36 = or i32 %28, %35
  %37 = load ptr, ptr %5, align 8, !tbaa !3
  %38 = load i32, ptr %10, align 4, !tbaa !8
  %39 = sext i32 %38 to i64
  %40 = getelementptr inbounds i32, ptr %37, i64 %39
  store i32 %36, ptr %40, align 4, !tbaa !8
  br label %41

41:                                               ; preds = %22
  %42 = load i32, ptr %10, align 4, !tbaa !8
  %43 = add nsw i32 %42, 1
  store i32 %43, ptr %10, align 4, !tbaa !8
  br label %18, !llvm.loop !68

44:                                               ; preds = %18
  store i32 1, ptr %13, align 4
  br label %206

45:                                               ; preds = %4
  store i32 0, ptr %10, align 4, !tbaa !8
  br label %46

46:                                               ; preds = %69, %45
  %47 = load i32, ptr %10, align 4, !tbaa !8
  %48 = load i32, ptr %9, align 4, !tbaa !8
  %49 = icmp slt i32 %47, %48
  br i1 %49, label %50, label %72

50:                                               ; preds = %46
  %51 = load ptr, ptr %6, align 8, !tbaa !3
  %52 = load i32, ptr %10, align 4, !tbaa !8
  %53 = sext i32 %52 to i64
  %54 = getelementptr inbounds i32, ptr %51, i64 %53
  %55 = load i32, ptr %54, align 4, !tbaa !8
  %56 = and i32 %55, 858993459
  %57 = load ptr, ptr %6, align 8, !tbaa !3
  %58 = load i32, ptr %10, align 4, !tbaa !8
  %59 = sext i32 %58 to i64
  %60 = getelementptr inbounds i32, ptr %57, i64 %59
  %61 = load i32, ptr %60, align 4, !tbaa !8
  %62 = and i32 %61, 858993459
  %63 = shl i32 %62, 2
  %64 = or i32 %56, %63
  %65 = load ptr, ptr %5, align 8, !tbaa !3
  %66 = load i32, ptr %10, align 4, !tbaa !8
  %67 = sext i32 %66 to i64
  %68 = getelementptr inbounds i32, ptr %65, i64 %67
  store i32 %64, ptr %68, align 4, !tbaa !8
  br label %69

69:                                               ; preds = %50
  %70 = load i32, ptr %10, align 4, !tbaa !8
  %71 = add nsw i32 %70, 1
  store i32 %71, ptr %10, align 4, !tbaa !8
  br label %46, !llvm.loop !69

72:                                               ; preds = %46
  store i32 1, ptr %13, align 4
  br label %206

73:                                               ; preds = %4
  store i32 0, ptr %10, align 4, !tbaa !8
  br label %74

74:                                               ; preds = %97, %73
  %75 = load i32, ptr %10, align 4, !tbaa !8
  %76 = load i32, ptr %9, align 4, !tbaa !8
  %77 = icmp slt i32 %75, %76
  br i1 %77, label %78, label %100

78:                                               ; preds = %74
  %79 = load ptr, ptr %6, align 8, !tbaa !3
  %80 = load i32, ptr %10, align 4, !tbaa !8
  %81 = sext i32 %80 to i64
  %82 = getelementptr inbounds i32, ptr %79, i64 %81
  %83 = load i32, ptr %82, align 4, !tbaa !8
  %84 = and i32 %83, 252645135
  %85 = load ptr, ptr %6, align 8, !tbaa !3
  %86 = load i32, ptr %10, align 4, !tbaa !8
  %87 = sext i32 %86 to i64
  %88 = getelementptr inbounds i32, ptr %85, i64 %87
  %89 = load i32, ptr %88, align 4, !tbaa !8
  %90 = and i32 %89, 252645135
  %91 = shl i32 %90, 4
  %92 = or i32 %84, %91
  %93 = load ptr, ptr %5, align 8, !tbaa !3
  %94 = load i32, ptr %10, align 4, !tbaa !8
  %95 = sext i32 %94 to i64
  %96 = getelementptr inbounds i32, ptr %93, i64 %95
  store i32 %92, ptr %96, align 4, !tbaa !8
  br label %97

97:                                               ; preds = %78
  %98 = load i32, ptr %10, align 4, !tbaa !8
  %99 = add nsw i32 %98, 1
  store i32 %99, ptr %10, align 4, !tbaa !8
  br label %74, !llvm.loop !70

100:                                              ; preds = %74
  store i32 1, ptr %13, align 4
  br label %206

101:                                              ; preds = %4
  store i32 0, ptr %10, align 4, !tbaa !8
  br label %102

102:                                              ; preds = %125, %101
  %103 = load i32, ptr %10, align 4, !tbaa !8
  %104 = load i32, ptr %9, align 4, !tbaa !8
  %105 = icmp slt i32 %103, %104
  br i1 %105, label %106, label %128

106:                                              ; preds = %102
  %107 = load ptr, ptr %6, align 8, !tbaa !3
  %108 = load i32, ptr %10, align 4, !tbaa !8
  %109 = sext i32 %108 to i64
  %110 = getelementptr inbounds i32, ptr %107, i64 %109
  %111 = load i32, ptr %110, align 4, !tbaa !8
  %112 = and i32 %111, 16711935
  %113 = load ptr, ptr %6, align 8, !tbaa !3
  %114 = load i32, ptr %10, align 4, !tbaa !8
  %115 = sext i32 %114 to i64
  %116 = getelementptr inbounds i32, ptr %113, i64 %115
  %117 = load i32, ptr %116, align 4, !tbaa !8
  %118 = and i32 %117, 16711935
  %119 = shl i32 %118, 8
  %120 = or i32 %112, %119
  %121 = load ptr, ptr %5, align 8, !tbaa !3
  %122 = load i32, ptr %10, align 4, !tbaa !8
  %123 = sext i32 %122 to i64
  %124 = getelementptr inbounds i32, ptr %121, i64 %123
  store i32 %120, ptr %124, align 4, !tbaa !8
  br label %125

125:                                              ; preds = %106
  %126 = load i32, ptr %10, align 4, !tbaa !8
  %127 = add nsw i32 %126, 1
  store i32 %127, ptr %10, align 4, !tbaa !8
  br label %102, !llvm.loop !71

128:                                              ; preds = %102
  store i32 1, ptr %13, align 4
  br label %206

129:                                              ; preds = %4
  store i32 0, ptr %10, align 4, !tbaa !8
  br label %130

130:                                              ; preds = %153, %129
  %131 = load i32, ptr %10, align 4, !tbaa !8
  %132 = load i32, ptr %9, align 4, !tbaa !8
  %133 = icmp slt i32 %131, %132
  br i1 %133, label %134, label %156

134:                                              ; preds = %130
  %135 = load ptr, ptr %6, align 8, !tbaa !3
  %136 = load i32, ptr %10, align 4, !tbaa !8
  %137 = sext i32 %136 to i64
  %138 = getelementptr inbounds i32, ptr %135, i64 %137
  %139 = load i32, ptr %138, align 4, !tbaa !8
  %140 = and i32 %139, 65535
  %141 = load ptr, ptr %6, align 8, !tbaa !3
  %142 = load i32, ptr %10, align 4, !tbaa !8
  %143 = sext i32 %142 to i64
  %144 = getelementptr inbounds i32, ptr %141, i64 %143
  %145 = load i32, ptr %144, align 4, !tbaa !8
  %146 = and i32 %145, 65535
  %147 = shl i32 %146, 16
  %148 = or i32 %140, %147
  %149 = load ptr, ptr %5, align 8, !tbaa !3
  %150 = load i32, ptr %10, align 4, !tbaa !8
  %151 = sext i32 %150 to i64
  %152 = getelementptr inbounds i32, ptr %149, i64 %151
  store i32 %148, ptr %152, align 4, !tbaa !8
  br label %153

153:                                              ; preds = %134
  %154 = load i32, ptr %10, align 4, !tbaa !8
  %155 = add nsw i32 %154, 1
  store i32 %155, ptr %10, align 4, !tbaa !8
  br label %130, !llvm.loop !72

156:                                              ; preds = %130
  store i32 1, ptr %13, align 4
  br label %206

157:                                              ; preds = %4
  %158 = load i32, ptr %8, align 4, !tbaa !8
  %159 = sub nsw i32 %158, 5
  %160 = shl i32 1, %159
  store i32 %160, ptr %12, align 4, !tbaa !8
  store i32 0, ptr %11, align 4, !tbaa !8
  br label %161

161:                                              ; preds = %200, %157
  %162 = load i32, ptr %11, align 4, !tbaa !8
  %163 = load i32, ptr %9, align 4, !tbaa !8
  %164 = icmp slt i32 %162, %163
  br i1 %164, label %165, label %205

165:                                              ; preds = %161
  store i32 0, ptr %10, align 4, !tbaa !8
  br label %166

166:                                              ; preds = %186, %165
  %167 = load i32, ptr %10, align 4, !tbaa !8
  %168 = load i32, ptr %12, align 4, !tbaa !8
  %169 = icmp slt i32 %167, %168
  br i1 %169, label %170, label %189

170:                                              ; preds = %166
  %171 = load ptr, ptr %6, align 8, !tbaa !3
  %172 = load i32, ptr %10, align 4, !tbaa !8
  %173 = sext i32 %172 to i64
  %174 = getelementptr inbounds i32, ptr %171, i64 %173
  %175 = load i32, ptr %174, align 4, !tbaa !8
  %176 = load ptr, ptr %5, align 8, !tbaa !3
  %177 = load i32, ptr %12, align 4, !tbaa !8
  %178 = load i32, ptr %10, align 4, !tbaa !8
  %179 = add nsw i32 %177, %178
  %180 = sext i32 %179 to i64
  %181 = getelementptr inbounds i32, ptr %176, i64 %180
  store i32 %175, ptr %181, align 4, !tbaa !8
  %182 = load ptr, ptr %5, align 8, !tbaa !3
  %183 = load i32, ptr %10, align 4, !tbaa !8
  %184 = sext i32 %183 to i64
  %185 = getelementptr inbounds i32, ptr %182, i64 %184
  store i32 %175, ptr %185, align 4, !tbaa !8
  br label %186

186:                                              ; preds = %170
  %187 = load i32, ptr %10, align 4, !tbaa !8
  %188 = add nsw i32 %187, 1
  store i32 %188, ptr %10, align 4, !tbaa !8
  br label %166, !llvm.loop !73

189:                                              ; preds = %166
  %190 = load i32, ptr %12, align 4, !tbaa !8
  %191 = mul nsw i32 2, %190
  %192 = load ptr, ptr %6, align 8, !tbaa !3
  %193 = sext i32 %191 to i64
  %194 = getelementptr inbounds i32, ptr %192, i64 %193
  store ptr %194, ptr %6, align 8, !tbaa !3
  %195 = load i32, ptr %12, align 4, !tbaa !8
  %196 = mul nsw i32 2, %195
  %197 = load ptr, ptr %5, align 8, !tbaa !3
  %198 = sext i32 %196 to i64
  %199 = getelementptr inbounds i32, ptr %197, i64 %198
  store ptr %199, ptr %5, align 8, !tbaa !3
  br label %200

200:                                              ; preds = %189
  %201 = load i32, ptr %12, align 4, !tbaa !8
  %202 = mul nsw i32 2, %201
  %203 = load i32, ptr %11, align 4, !tbaa !8
  %204 = add nsw i32 %203, %202
  store i32 %204, ptr %11, align 4, !tbaa !8
  br label %161, !llvm.loop !74

205:                                              ; preds = %161
  store i32 1, ptr %13, align 4
  br label %206

206:                                              ; preds = %205, %156, %128, %100, %72, %44
  call void @llvm.lifetime.end.p0(i64 4, ptr %12) #8
  call void @llvm.lifetime.end.p0(i64 4, ptr %11) #8
  call void @llvm.lifetime.end.p0(i64 4, ptr %10) #8
  call void @llvm.lifetime.end.p0(i64 4, ptr %9) #8
  ret void
}