; Function Attrs: nofree norecurse nosync nounwind memory(argmem: readwrite) uwtable
define void @Kit_TruthCofactor0New(ptr noundef writeonly captures(none) %0, ptr noundef readonly captures(none) %1, i32 noundef %2, i32 noundef %3) local_unnamed_addr #0 {
  %5 = icmp slt i32 %2, 6
  %6 = add nsw i32 %2, -5
  %7 = shl nuw i32 1, %6
  %8 = select i1 %5, i32 1, i32 %7
  switch i32 %3, label %39 [
    i32 0, label %.preheader70
    i32 1, label %.preheader72
    i32 2, label %.preheader74
    i32 3, label %.preheader76
    i32 4, label %.preheader78
  ]

.preheader78:                                     ; preds = %4
  %9 = icmp sgt i32 %8, 0
  br i1 %9, label %.lr.ph.preheader, label %.loopexit

.lr.ph.preheader:                                 ; preds = %.preheader78
  %wide.trip.count = zext nneg i32 %8 to i64
  br label %.lr.ph

.preheader76:                                     ; preds = %4
  %10 = icmp sgt i32 %8, 0
  br i1 %10, label %.lr.ph82.preheader, label %.loopexit

.lr.ph82.preheader:                               ; preds = %.preheader76
  %wide.trip.count104 = zext nneg i32 %8 to i64
  br label %.lr.ph82

.preheader74:                                     ; preds = %4
  %11 = icmp sgt i32 %8, 0
  br i1 %11, label %.lr.ph84.preheader, label %.loopexit

.lr.ph84.preheader:                               ; preds = %.preheader74
  %wide.trip.count109 = zext nneg i32 %8 to i64
  br label %.lr.ph84

.preheader72:                                     ; preds = %4
  %12 = icmp sgt i32 %8, 0
  br i1 %12, label %.lr.ph86.preheader, label %.loopexit

.lr.ph86.preheader:                               ; preds = %.preheader72
  %wide.trip.count114 = zext nneg i32 %8 to i64
  br label %.lr.ph86

.preheader70:                                     ; preds = %4
  %13 = icmp sgt i32 %8, 0
  br i1 %13, label %.lr.ph88.preheader, label %.loopexit

.lr.ph88.preheader:                               ; preds = %.preheader70
  %wide.trip.count119 = zext nneg i32 %8 to i64
  br label %.lr.ph88

.lr.ph88:                                         ; preds = %.lr.ph88.preheader, %.lr.ph88
  %indvars.iv116 = phi i64 [ 0, %.lr.ph88.preheader ], [ %indvars.iv.next117, %.lr.ph88 ]
  %14 = getelementptr inbounds nuw i32, ptr %1, i64 %indvars.iv116
  %15 = load i32, ptr %14, align 4, !tbaa !3
  %16 = and i32 %15, 1431655765
  %17 = mul nuw i32 %16, 3
  %18 = getelementptr inbounds nuw i32, ptr %0, i64 %indvars.iv116
  store i32 %17, ptr %18, align 4, !tbaa !3
  %indvars.iv.next117 = add nuw nsw i64 %indvars.iv116, 1
  %exitcond120.not = icmp eq i64 %indvars.iv.next117, %wide.trip.count119
  br i1 %exitcond120.not, label %.loopexit, label %.lr.ph88, !llvm.loop !62

.lr.ph86:                                         ; preds = %.lr.ph86.preheader, %.lr.ph86
  %indvars.iv111 = phi i64 [ 0, %.lr.ph86.preheader ], [ %indvars.iv.next112, %.lr.ph86 ]
  %19 = getelementptr inbounds nuw i32, ptr %1, i64 %indvars.iv111
  %20 = load i32, ptr %19, align 4, !tbaa !3
  %21 = and i32 %20, 858993459
  %22 = mul nuw i32 %21, 5
  %23 = getelementptr inbounds nuw i32, ptr %0, i64 %indvars.iv111
  store i32 %22, ptr %23, align 4, !tbaa !3
  %indvars.iv.next112 = add nuw nsw i64 %indvars.iv111, 1
  %exitcond115.not = icmp eq i64 %indvars.iv.next112, %wide.trip.count114
  br i1 %exitcond115.not, label %.loopexit, label %.lr.ph86, !llvm.loop !63

.lr.ph84:                                         ; preds = %.lr.ph84.preheader, %.lr.ph84
  %indvars.iv106 = phi i64 [ 0, %.lr.ph84.preheader ], [ %indvars.iv.next107, %.lr.ph84 ]
  %24 = getelementptr inbounds nuw i32, ptr %1, i64 %indvars.iv106
  %25 = load i32, ptr %24, align 4, !tbaa !3
  %26 = and i32 %25, 252645135
  %27 = mul nuw i32 %26, 17
  %28 = getelementptr inbounds nuw i32, ptr %0, i64 %indvars.iv106
  store i32 %27, ptr %28, align 4, !tbaa !3
  %indvars.iv.next107 = add nuw nsw i64 %indvars.iv106, 1
  %exitcond110.not = icmp eq i64 %indvars.iv.next107, %wide.trip.count109
  br i1 %exitcond110.not, label %.loopexit, label %.lr.ph84, !llvm.loop !64

.lr.ph82:                                         ; preds = %.lr.ph82.preheader, %.lr.ph82
  %indvars.iv101 = phi i64 [ 0, %.lr.ph82.preheader ], [ %indvars.iv.next102, %.lr.ph82 ]
  %29 = getelementptr inbounds nuw i32, ptr %1, i64 %indvars.iv101
  %30 = load i32, ptr %29, align 4, !tbaa !3
  %31 = and i32 %30, 16711935
  %32 = mul nuw i32 %31, 257
  %33 = getelementptr inbounds nuw i32, ptr %0, i64 %indvars.iv101
  store i32 %32, ptr %33, align 4, !tbaa !3
  %indvars.iv.next102 = add nuw nsw i64 %indvars.iv101, 1
  %exitcond105.not = icmp eq i64 %indvars.iv.next102, %wide.trip.count104
  br i1 %exitcond105.not, label %.loopexit, label %.lr.ph82, !llvm.loop !65

.lr.ph:                                           ; preds = %.lr.ph.preheader, %.lr.ph
  %indvars.iv = phi i64 [ 0, %.lr.ph.preheader ], [ %indvars.iv.next, %.lr.ph ]
  %34 = getelementptr inbounds nuw i32, ptr %1, i64 %indvars.iv
  %35 = load i32, ptr %34, align 4, !tbaa !3
  %36 = and i32 %35, 65535
  %37 = mul nuw i32 %36, 65537
  %38 = getelementptr inbounds nuw i32, ptr %0, i64 %indvars.iv
  store i32 %37, ptr %38, align 4, !tbaa !3
  %indvars.iv.next = add nuw nsw i64 %indvars.iv, 1
  %exitcond.not = icmp eq i64 %indvars.iv.next, %wide.trip.count
  br i1 %exitcond.not, label %.loopexit, label %.lr.ph, !llvm.loop !66

39:                                               ; preds = %4
  %40 = add nsw i32 %3, -5
  %41 = shl nuw i32 1, %40
  %42 = icmp sgt i32 %8, 0
  br i1 %42, label %.preheader.lr.ph, label %.loopexit

.preheader.lr.ph:                                 ; preds = %39
  %.not = icmp eq i32 %40, 31
  %43 = shl i32 2, %40
  %44 = sext i32 %43 to i64
  br i1 %.not, label %.loopexit, label %.preheader.us.preheader

.preheader.us.preheader:                          ; preds = %.preheader.lr.ph
  %45 = sext i32 %41 to i64
  %smax = tail call i32 @llvm.smax.i32(i32 %41, i32 1)
  %wide.trip.count124 = zext nneg i32 %smax to i64
  br label %.preheader.us

.preheader.us:                                    ; preds = %.preheader.us.preheader, %._crit_edge.us
  %.093.us = phi ptr [ %51, %._crit_edge.us ], [ %0, %.preheader.us.preheader ]
  %.06592.us = phi i32 [ %52, %._crit_edge.us ], [ 0, %.preheader.us.preheader ]
  %.06791.us = phi ptr [ %50, %._crit_edge.us ], [ %1, %.preheader.us.preheader ]
  %invariant.gep = getelementptr i32, ptr %.093.us, i64 %45
  br label %46

46:                                               ; preds = %.preheader.us, %46
  %indvars.iv121 = phi i64 [ 0, %.preheader.us ], [ %indvars.iv.next122, %46 ]
  %47 = getelementptr inbounds nuw i32, ptr %.06791.us, i64 %indvars.iv121
  %48 = load i32, ptr %47, align 4, !tbaa !3
  %gep = getelementptr i32, ptr %invariant.gep, i64 %indvars.iv121
  store i32 %48, ptr %gep, align 4, !tbaa !3
  %49 = getelementptr inbounds nuw i32, ptr %.093.us, i64 %indvars.iv121
  store i32 %48, ptr %49, align 4, !tbaa !3
  %indvars.iv.next122 = add nuw nsw i64 %indvars.iv121, 1
  %exitcond125.not = icmp eq i64 %indvars.iv.next122, %wide.trip.count124
  br i1 %exitcond125.not, label %._crit_edge.us, label %46, !llvm.loop !67

._crit_edge.us:                                   ; preds = %46
  %50 = getelementptr inbounds i32, ptr %.06791.us, i64 %44
  %51 = getelementptr inbounds i32, ptr %.093.us, i64 %44
  %52 = add nsw i32 %.06592.us, %43
  %53 = icmp slt i32 %52, %8
  br i1 %53, label %.preheader.us, label %.loopexit, !llvm.loop !68

.loopexit:                                        ; preds = %.lr.ph, %.lr.ph82, %.lr.ph84, %.lr.ph86, %.lr.ph88, %._crit_edge.us, %.preheader.lr.ph, %.preheader78, %.preheader76, %.preheader74, %.preheader72, %.preheader70, %39
  ret void
}